; Function Attrs: nounwind uwtable
define ptr @l_Lake_instMonadTask__lake___lambda__10(ptr readnone captures(none) %0, ptr readnone captures(none) %1, ptr noundef %2, ptr noundef %3) #0 {
  tail call void @lean_inc_heartbeat() #4
  %5 = tail call noalias ptr @mi_malloc_small(i64 noundef 32) #4
  %6 = icmp eq ptr %5, null
  br i1 %6, label %7, label %lean_alloc_closure.exit

7:                                                ; preds = %4
  tail call void @lean_internal_panic_out_of_memory() #5
  unreachable

lean_alloc_closure.exit:                          ; preds = %4
  %8 = getelementptr inbounds nuw i8, ptr %5, i64 4
  store i32 1, ptr %5, align 4, !tbaa !8
  store i32 -184549344, ptr %8, align 4
  %9 = getelementptr inbounds nuw i8, ptr %5, i64 8
  store ptr @l_Lake_instMonadTask__lake___lambda__9___boxed, ptr %9, align 8, !tbaa !4
  %10 = getelementptr inbounds nuw i8, ptr %5, i64 16
  store i16 2, ptr %10, align 8, !tbaa !11
  %11 = getelementptr inbounds nuw i8, ptr %5, i64 18
  store i16 1, ptr %11, align 2, !tbaa !11
  %12 = getelementptr inbounds nuw i8, ptr %5, i64 24
  store ptr %3, ptr %12, align 8, !tbaa !4
  %13 = load ptr, ptr @l_Task_Priority_default, align 8, !tbaa !4
  %14 = ptrtoint ptr %13 to i64
  %15 = lshr i64 %14, 1
  %16 = trunc i64 %15 to i32
  %17 = tail call ptr @lean_task_bind_core(ptr noundef %2, ptr noundef nonnull %5, i32 noundef %16, i1 noundef zeroext false, i1 noundef zeroext false) #4
  ret ptr %17
}